
barebone.elf:     file format elf32-tradlittlemips


Disassembly of section .text:

80000000 <_start>:
80000000:	40806000 	mtc0	zero,c0_sr
80000004:	40809000 	mtc0	zero,$18
80000008:	40809800 	mtc0	zero,$19
8000000c:	40088000 	mfc0	t0,$16
80000010:	2401fff8 	li	at,-8
80000014:	01014024 	and	t0,t0,at
80000018:	35080002 	ori	t0,t0,0x2
8000001c:	40888000 	mtc0	t0,$16
80000020:	3c1d8000 	lui	sp,0x8000
80000024:	37bd27f0 	ori	sp,sp,0x27f0
80000028:	0c000010 	jal	80000040 <main>
8000002c:	00000000 	nop

80000030 <loop>:
80000030:	0800000c 	j	80000030 <loop>
80000034:	00000000 	nop
	...

80000040 <main>:
80000040:	27bdffe8 	addiu	sp,sp,-24
80000044:	afbf0014 	sw	ra,20(sp)
80000048:	3c048000 	lui	a0,0x8000
8000004c:	24841054 	addiu	a0,a0,4180
80000050:	0c00037a 	jal	80000de8 <printf>
80000054:	00000000 	nop
80000058:	3c048000 	lui	a0,0x8000
8000005c:	24841040 	addiu	a0,a0,4160
80000060:	0c00037a 	jal	80000de8 <printf>
80000064:	00000000 	nop
80000068:	3c048000 	lui	a0,0x8000
8000006c:	24841058 	addiu	a0,a0,4184
80000070:	0c00037a 	jal	80000de8 <printf>
80000074:	00000000 	nop
80000078:	2405000c 	li	a1,12
8000007c:	3c048000 	lui	a0,0x8000
80000080:	2484106c 	addiu	a0,a0,4204
80000084:	0c00037a 	jal	80000de8 <printf>
80000088:	00000000 	nop
8000008c:	3c048000 	lui	a0,0x8000
80000090:	24841078 	addiu	a0,a0,4216
80000094:	0c00037a 	jal	80000de8 <printf>
80000098:	00000000 	nop
8000009c:	3c058000 	lui	a1,0x8000
800000a0:	24a51090 	addiu	a1,a1,4240
800000a4:	3c048000 	lui	a0,0x8000
800000a8:	2484109c 	addiu	a0,a0,4252
800000ac:	0c00037a 	jal	80000de8 <printf>
800000b0:	00000000 	nop
800000b4:	2405fdd5 	li	a1,-555
800000b8:	3c048000 	lui	a0,0x8000
800000bc:	248410b0 	addiu	a0,a0,4272
800000c0:	0c00037a 	jal	80000de8 <printf>
800000c4:	00000000 	nop
800000c8:	2405022b 	li	a1,555
800000cc:	3c048000 	lui	a0,0x8000
800000d0:	248410c0 	addiu	a0,a0,4288
800000d4:	0c00037a 	jal	80000de8 <printf>
800000d8:	00000000 	nop
800000dc:	2405022b 	li	a1,555
800000e0:	3c048000 	lui	a0,0x8000
800000e4:	248410d4 	addiu	a0,a0,4308
800000e8:	0c00037a 	jal	80000de8 <printf>
800000ec:	00000000 	nop
800000f0:	1000ffff 	b	800000f0 <main+0xb0>
800000f4:	00000000 	nop
	...

80000100 <Uart16550Init>:
80000100:	00e63025 	or	a2,a3,a2
80000104:	3c03b400 	lui	v1,0xb400
80000108:	a06003fc 	sb	zero,1020(v1)
8000010c:	2402ff80 	li	v0,-128
80000110:	a0620404 	sb	v0,1028(v1)
80000114:	3c020011 	lui	v0,0x11
80000118:	34429400 	ori	v0,v0,0x9400
8000011c:	14800002 	bnez	a0,80000128 <Uart16550Init+0x28>
80000120:	0044001b 	divu	zero,v0,a0
80000124:	0007000d 	break	0x7
80000128:	00002012 	mflo	a0
8000012c:	308200ff 	andi	v0,a0,0xff
80000130:	a06203f8 	sb	v0,1016(v1)
80000134:	3084ff00 	andi	a0,a0,0xff00
80000138:	00042202 	srl	a0,a0,0x8
8000013c:	a06403fc 	sb	a0,1020(v1)
80000140:	a0600404 	sb	zero,1028(v1)
80000144:	00c52825 	or	a1,a2,a1
80000148:	30a500ff 	andi	a1,a1,0xff
8000014c:	a0650404 	sb	a1,1028(v1)
80000150:	03e00008 	jr	ra
80000154:	00000000 	nop

80000158 <Uart16550GetPoll>:
80000158:	3c03b400 	lui	v1,0xb400
8000015c:	8c6203fc 	lw	v0,1020(v1)
80000160:	00000000 	nop
80000164:	30420100 	andi	v0,v0,0x100
80000168:	1040fffc 	beqz	v0,8000015c <Uart16550GetPoll+0x4>
8000016c:	00000000 	nop
80000170:	3c02b400 	lui	v0,0xb400
80000174:	904203f8 	lbu	v0,1016(v0)
80000178:	00000000 	nop
8000017c:	304200ff 	andi	v0,v0,0xff
80000180:	03e00008 	jr	ra
80000184:	00000000 	nop

80000188 <Uart16550Put>:
80000188:	308400ff 	andi	a0,a0,0xff
8000018c:	3c03b400 	lui	v1,0xb400
80000190:	8c6203fc 	lw	v0,1020(v1)
80000194:	00000000 	nop
80000198:	30422000 	andi	v0,v0,0x2000
8000019c:	1040fffc 	beqz	v0,80000190 <Uart16550Put+0x8>
800001a0:	00000000 	nop
800001a4:	3c02b400 	lui	v0,0xb400
800001a8:	ac4403f8 	sw	a0,1016(v0)
800001ac:	03e00008 	jr	ra
800001b0:	00000000 	nop
	...

800001c0 <PrintChar>:
800001c0:	00c01021 	move	v0,a2
800001c4:	00052e00 	sll	a1,a1,0x18
800001c8:	00052e03 	sra	a1,a1,0x18
800001cc:	18c00025 	blez	a2,80000264 <PrintChar+0xa4>
800001d0:	00000000 	nop
800001d4:	14e00006 	bnez	a3,800001f0 <PrintChar+0x30>
800001d8:	00000000 	nop
800001dc:	24c3ffff 	addiu	v1,a2,-1
800001e0:	1c600010 	bgtz	v1,80000224 <PrintChar+0x64>
800001e4:	00000000 	nop
800001e8:	10000016 	b	80000244 <PrintChar+0x84>
800001ec:	00000000 	nop
800001f0:	a0850000 	sb	a1,0(a0)
800001f4:	28c30002 	slti	v1,a2,2
800001f8:	1460001f 	bnez	v1,80000278 <PrintChar+0xb8>
800001fc:	00000000 	nop
80000200:	24830001 	addiu	v1,a0,1
80000204:	00862021 	addu	a0,a0,a2
80000208:	24050020 	li	a1,32
8000020c:	a0650000 	sb	a1,0(v1)
80000210:	24630001 	addiu	v1,v1,1
80000214:	1464fffd 	bne	v1,a0,8000020c <PrintChar+0x4c>
80000218:	00000000 	nop
8000021c:	03e00008 	jr	ra
80000220:	00000000 	nop
80000224:	00801821 	move	v1,a0
80000228:	24c7ffff 	addiu	a3,a2,-1
8000022c:	00873821 	addu	a3,a0,a3
80000230:	24080020 	li	t0,32
80000234:	a0680000 	sb	t0,0(v1)
80000238:	24630001 	addiu	v1,v1,1
8000023c:	1467fffd 	bne	v1,a3,80000234 <PrintChar+0x74>
80000240:	00000000 	nop
80000244:	00822021 	addu	a0,a0,v0
80000248:	a085ffff 	sb	a1,-1(a0)
8000024c:	03e00008 	jr	ra
80000250:	00000000 	nop
80000254:	a0850000 	sb	a1,0(a0)
80000258:	24020001 	li	v0,1
8000025c:	03e00008 	jr	ra
80000260:	00000000 	nop
80000264:	14e0fffb 	bnez	a3,80000254 <PrintChar+0x94>
80000268:	00000000 	nop
8000026c:	24020001 	li	v0,1
80000270:	1000fff4 	b	80000244 <PrintChar+0x84>
80000274:	00000000 	nop
80000278:	03e00008 	jr	ra
8000027c:	00000000 	nop

80000280 <PrintString>:
80000280:	24a20001 	addiu	v0,a1,1
80000284:	80a30000 	lb	v1,0(a1)
80000288:	00000000 	nop
8000028c:	1060004a 	beqz	v1,800003b8 <PrintString+0x138>
80000290:	00000000 	nop
80000294:	00a04021 	move	t0,a1
80000298:	00454823 	subu	t1,v0,a1
8000029c:	01201821 	move	v1,t1
800002a0:	24420001 	addiu	v0,v0,1
800002a4:	804affff 	lb	t2,-1(v0)
800002a8:	00000000 	nop
800002ac:	1540fff9 	bnez	t2,80000294 <PrintString+0x14>
800002b0:	00000000 	nop
800002b4:	00c01021 	move	v0,a2
800002b8:	00c9302a 	slt	a2,a2,t1
800002bc:	10c00002 	beqz	a2,800002c8 <PrintString+0x48>
800002c0:	00000000 	nop
800002c4:	01201021 	move	v0,t1
800002c8:	14e00006 	bnez	a3,800002e4 <PrintString+0x64>
800002cc:	00000000 	nop
800002d0:	00433023 	subu	a2,v0,v1
800002d4:	1cc00020 	bgtz	a2,80000358 <PrintString+0xd8>
800002d8:	00000000 	nop
800002dc:	10000025 	b	80000374 <PrintString+0xf4>
800002e0:	00000000 	nop
800002e4:	1860000e 	blez	v1,80000320 <PrintString+0xa0>
800002e8:	00000000 	nop
800002ec:	00803821 	move	a3,a0
800002f0:	00a92821 	addu	a1,a1,t1
800002f4:	01003021 	move	a2,t0
800002f8:	80c80000 	lb	t0,0(a2)
800002fc:	00000000 	nop
80000300:	a0e80000 	sb	t0,0(a3)
80000304:	24c60001 	addiu	a2,a2,1
80000308:	24e70001 	addiu	a3,a3,1
8000030c:	14a6fffa 	bne	a1,a2,800002f8 <PrintString+0x78>
80000310:	00000000 	nop
80000314:	10000002 	b	80000320 <PrintString+0xa0>
80000318:	00000000 	nop
8000031c:	00001821 	move	v1,zero
80000320:	0062282a 	slt	a1,v1,v0
80000324:	10a0002c 	beqz	a1,800003d8 <PrintString+0x158>
80000328:	00000000 	nop
8000032c:	00831821 	addu	v1,a0,v1
80000330:	00822021 	addu	a0,a0,v0
80000334:	24050020 	li	a1,32
80000338:	a0650000 	sb	a1,0(v1)
8000033c:	24630001 	addiu	v1,v1,1
80000340:	1483fffd 	bne	a0,v1,80000338 <PrintString+0xb8>
80000344:	00000000 	nop
80000348:	03e00008 	jr	ra
8000034c:	00000000 	nop
80000350:	00403021 	move	a2,v0
80000354:	00001821 	move	v1,zero
80000358:	00803821 	move	a3,a0
8000035c:	00864821 	addu	t1,a0,a2
80000360:	24080020 	li	t0,32
80000364:	a0e80000 	sb	t0,0(a3)
80000368:	24e70001 	addiu	a3,a3,1
8000036c:	14e9fffd 	bne	a3,t1,80000364 <PrintString+0xe4>
80000370:	00000000 	nop
80000374:	00c2382a 	slt	a3,a2,v0
80000378:	10e00017 	beqz	a3,800003d8 <PrintString+0x158>
8000037c:	00000000 	nop
80000380:	00c23823 	subu	a3,a2,v0
80000384:	00e31821 	addu	v1,a3,v1
80000388:	00a32821 	addu	a1,a1,v1
8000038c:	00861821 	addu	v1,a0,a2
80000390:	00822021 	addu	a0,a0,v0
80000394:	80a60000 	lb	a2,0(a1)
80000398:	00000000 	nop
8000039c:	a0660000 	sb	a2,0(v1)
800003a0:	24a50001 	addiu	a1,a1,1
800003a4:	24630001 	addiu	v1,v1,1
800003a8:	1464fffa 	bne	v1,a0,80000394 <PrintString+0x114>
800003ac:	00000000 	nop
800003b0:	03e00008 	jr	ra
800003b4:	00000000 	nop
800003b8:	00c01021 	move	v0,a2
800003bc:	04c10002 	bgez	a2,800003c8 <PrintString+0x148>
800003c0:	00000000 	nop
800003c4:	00001021 	move	v0,zero
800003c8:	14e0ffd4 	bnez	a3,8000031c <PrintString+0x9c>
800003cc:	00000000 	nop
800003d0:	1c40ffdf 	bgtz	v0,80000350 <PrintString+0xd0>
800003d4:	00000000 	nop
800003d8:	03e00008 	jr	ra
800003dc:	00000000 	nop

800003e0 <PrintNum>:
800003e0:	8fac0010 	lw	t4,16(sp)
800003e4:	8fad0014 	lw	t5,20(sp)
800003e8:	8fab001c 	lw	t3,28(sp)
800003ec:	83aa0018 	lb	t2,24(sp)
800003f0:	24880001 	addiu	t0,a0,1
800003f4:	00c04821 	move	t1,a2
800003f8:	14c00002 	bnez	a2,80000404 <PrintNum+0x24>
800003fc:	00a6001b 	divu	zero,a1,a2
80000400:	0007000d 	break	0x7
80000404:	00001810 	mfhi	v1
80000408:	2862000a 	slti	v0,v1,10
8000040c:	10400006 	beqz	v0,80000428 <PrintNum+0x48>
80000410:	00000000 	nop
80000414:	01001021 	move	v0,t0
80000418:	24630030 	addiu	v1,v1,48
8000041c:	a103ffff 	sb	v1,-1(t0)
80000420:	1000000b 	b	80000450 <PrintNum+0x70>
80000424:	00000000 	nop
80000428:	11600006 	beqz	t3,80000444 <PrintNum+0x64>
8000042c:	00000000 	nop
80000430:	01001021 	move	v0,t0
80000434:	24630037 	addiu	v1,v1,55
80000438:	a103ffff 	sb	v1,-1(t0)
8000043c:	10000004 	b	80000450 <PrintNum+0x70>
80000440:	00000000 	nop
80000444:	01001021 	move	v0,t0
80000448:	24630057 	addiu	v1,v1,87
8000044c:	a103ffff 	sb	v1,-1(t0)
80000450:	15200002 	bnez	t1,8000045c <PrintNum+0x7c>
80000454:	00a9001b 	divu	zero,a1,t1
80000458:	0007000d 	break	0x7
8000045c:	00002812 	mflo	a1
80000460:	25080001 	addiu	t0,t0,1
80000464:	14a0ffe4 	bnez	a1,800003f8 <PrintNum+0x18>
80000468:	00000000 	nop
8000046c:	10e00049 	beqz	a3,80000594 <PrintNum+0x1b4>
80000470:	00000000 	nop
80000474:	24450001 	addiu	a1,v0,1
80000478:	2403002d 	li	v1,45
8000047c:	a0430000 	sb	v1,0(v0)
80000480:	00a41823 	subu	v1,a1,a0
80000484:	00601021 	move	v0,v1
80000488:	006c302a 	slt	a2,v1,t4
8000048c:	10c00002 	beqz	a2,80000498 <PrintNum+0xb8>
80000490:	00000000 	nop
80000494:	01801021 	move	v0,t4
80000498:	15a0004d 	bnez	t5,800005d0 <PrintNum+0x1f0>
8000049c:	00000000 	nop
800004a0:	24060030 	li	a2,48
800004a4:	15460045 	bne	t2,a2,800005bc <PrintNum+0x1dc>
800004a8:	00000000 	nop
800004ac:	10000006 	b	800004c8 <PrintNum+0xe8>
800004b0:	00000000 	nop
800004b4:	0062282a 	slt	a1,v1,v0
800004b8:	14a00014 	bnez	a1,8000050c <PrintNum+0x12c>
800004bc:	00000000 	nop
800004c0:	1000001a 	b	8000052c <PrintNum+0x14c>
800004c4:	00000000 	nop
800004c8:	2463ffff 	addiu	v1,v1,-1
800004cc:	2446ffff 	addiu	a2,v0,-1
800004d0:	0066182a 	slt	v1,v1,a2
800004d4:	10600008 	beqz	v1,800004f8 <PrintNum+0x118>
800004d8:	00000000 	nop
800004dc:	00a01821 	move	v1,a1
800004e0:	00823021 	addu	a2,a0,v0
800004e4:	24050030 	li	a1,48
800004e8:	a065ffff 	sb	a1,-1(v1)
800004ec:	24630001 	addiu	v1,v1,1
800004f0:	1466fffd 	bne	v1,a2,800004e8 <PrintNum+0x108>
800004f4:	00000000 	nop
800004f8:	00821821 	addu	v1,a0,v0
800004fc:	2405002d 	li	a1,45
80000500:	a065ffff 	sb	a1,-1(v1)
80000504:	1000000e 	b	80000540 <PrintNum+0x160>
80000508:	00000000 	nop
8000050c:	00833021 	addu	a2,a0,v1
80000510:	00602821 	move	a1,v1
80000514:	a0ca0000 	sb	t2,0(a2)
80000518:	24a50001 	addiu	a1,a1,1
8000051c:	24c60001 	addiu	a2,a2,1
80000520:	00a2382a 	slt	a3,a1,v0
80000524:	14e0fffb 	bnez	a3,80000514 <PrintNum+0x134>
80000528:	00000000 	nop
8000052c:	11a00004 	beqz	t5,80000540 <PrintNum+0x160>
80000530:	00000000 	nop
80000534:	2463ffff 	addiu	v1,v1,-1
80000538:	10000002 	b	80000544 <PrintNum+0x164>
8000053c:	00000000 	nop
80000540:	2443ffff 	addiu	v1,v0,-1
80000544:	1860002e 	blez	v1,80000600 <PrintNum+0x220>
80000548:	00000000 	nop
8000054c:	00802821 	move	a1,a0
80000550:	00604021 	move	t0,v1
80000554:	00832021 	addu	a0,a0,v1
80000558:	00001821 	move	v1,zero
8000055c:	80a60000 	lb	a2,0(a1)
80000560:	80870000 	lb	a3,0(a0)
80000564:	00000000 	nop
80000568:	a0a70000 	sb	a3,0(a1)
8000056c:	a0860000 	sb	a2,0(a0)
80000570:	24630001 	addiu	v1,v1,1
80000574:	24a50001 	addiu	a1,a1,1
80000578:	2484ffff 	addiu	a0,a0,-1
8000057c:	01033023 	subu	a2,t0,v1
80000580:	0066302a 	slt	a2,v1,a2
80000584:	14c0fff5 	bnez	a2,8000055c <PrintNum+0x17c>
80000588:	00000000 	nop
8000058c:	03e00008 	jr	ra
80000590:	00000000 	nop
80000594:	00441823 	subu	v1,v0,a0
80000598:	01801021 	move	v0,t4
8000059c:	0183602a 	slt	t4,t4,v1
800005a0:	11800002 	beqz	t4,800005ac <PrintNum+0x1cc>
800005a4:	00000000 	nop
800005a8:	00601021 	move	v0,v1
800005ac:	15a0000e 	bnez	t5,800005e8 <PrintNum+0x208>
800005b0:	00000000 	nop
800005b4:	1000ffbf 	b	800004b4 <PrintNum+0xd4>
800005b8:	00000000 	nop
800005bc:	0062282a 	slt	a1,v1,v0
800005c0:	14a0ffd2 	bnez	a1,8000050c <PrintNum+0x12c>
800005c4:	00000000 	nop
800005c8:	1000ffdd 	b	80000540 <PrintNum+0x160>
800005cc:	00000000 	nop
800005d0:	0062282a 	slt	a1,v1,v0
800005d4:	240a0020 	li	t2,32
800005d8:	14a0ffcc 	bnez	a1,8000050c <PrintNum+0x12c>
800005dc:	00000000 	nop
800005e0:	1000ffd4 	b	80000534 <PrintNum+0x154>
800005e4:	00000000 	nop
800005e8:	0062282a 	slt	a1,v1,v0
800005ec:	240a0020 	li	t2,32
800005f0:	14a0ffc6 	bnez	a1,8000050c <PrintNum+0x12c>
800005f4:	00000000 	nop
800005f8:	1000ffce 	b	80000534 <PrintNum+0x154>
800005fc:	00000000 	nop
80000600:	03e00008 	jr	ra
80000604:	00000000 	nop

80000608 <lp_Print>:
80000608:	27bdff68 	addiu	sp,sp,-152
8000060c:	afbf0094 	sw	ra,148(sp)
80000610:	afb70090 	sw	s7,144(sp)
80000614:	afb6008c 	sw	s6,140(sp)
80000618:	afb50088 	sw	s5,136(sp)
8000061c:	afb40084 	sw	s4,132(sp)
80000620:	afb30080 	sw	s3,128(sp)
80000624:	afb2007c 	sw	s2,124(sp)
80000628:	afb10078 	sw	s1,120(sp)
8000062c:	afb00074 	sw	s0,116(sp)
80000630:	00809821 	move	s3,a0
80000634:	00a0a021 	move	s4,a1
80000638:	00c02821 	move	a1,a2
8000063c:	00e09021 	move	s2,a3
80000640:	24110025 	li	s1,37
80000644:	2416006c 	li	s6,108
80000648:	3c158000 	lui	s5,0x8000
8000064c:	26b50e34 	addiu	s5,s5,3636
80000650:	80a20000 	lb	v0,0(a1)
80000654:	00000000 	nop
80000658:	1040000d 	beqz	v0,80000690 <lp_Print+0x88>
8000065c:	00000000 	nop
80000660:	1051000e 	beq	v0,s1,8000069c <lp_Print+0x94>
80000664:	00000000 	nop
80000668:	00a08021 	move	s0,a1
8000066c:	26100001 	addiu	s0,s0,1
80000670:	82020000 	lb	v0,0(s0)
80000674:	00000000 	nop
80000678:	10400009 	beqz	v0,800006a0 <lp_Print+0x98>
8000067c:	00000000 	nop
80000680:	1451fffa 	bne	v0,s1,8000066c <lp_Print+0x64>
80000684:	00000000 	nop
80000688:	10000005 	b	800006a0 <lp_Print+0x98>
8000068c:	00000000 	nop
80000690:	00a08021 	move	s0,a1
80000694:	10000002 	b	800006a0 <lp_Print+0x98>
80000698:	00000000 	nop
8000069c:	00a08021 	move	s0,a1
800006a0:	02053023 	subu	a2,s0,a1
800006a4:	2cc20051 	sltiu	v0,a2,81
800006a8:	14400009 	bnez	v0,800006d0 <lp_Print+0xc8>
800006ac:	00000000 	nop
800006b0:	24060018 	li	a2,24
800006b4:	3c058000 	lui	a1,0x8000
800006b8:	24a51018 	addiu	a1,a1,4120
800006bc:	02802021 	move	a0,s4
800006c0:	0260f809 	jalr	s3
800006c4:	00000000 	nop
800006c8:	1000ffff 	b	800006c8 <lp_Print+0xc0>
800006cc:	00000000 	nop
800006d0:	02802021 	move	a0,s4
800006d4:	0260f809 	jalr	s3
800006d8:	00000000 	nop
800006dc:	82020000 	lb	v0,0(s0)
800006e0:	00000000 	nop
800006e4:	10400172 	beqz	v0,80000cb0 <lp_Print+0x6a8>
800006e8:	00000000 	nop
800006ec:	82020001 	lb	v0,1(s0)
800006f0:	00000000 	nop
800006f4:	10560005 	beq	v0,s6,8000070c <lp_Print+0x104>
800006f8:	00000000 	nop
800006fc:	26100001 	addiu	s0,s0,1
80000700:	00002821 	move	a1,zero
80000704:	10000003 	b	80000714 <lp_Print+0x10c>
80000708:	00000000 	nop
8000070c:	26100002 	addiu	s0,s0,2
80000710:	24050001 	li	a1,1
80000714:	82030000 	lb	v1,0(s0)
80000718:	2402002d 	li	v0,45
8000071c:	14620005 	bne	v1,v0,80000734 <lp_Print+0x12c>
80000720:	00000000 	nop
80000724:	26100001 	addiu	s0,s0,1
80000728:	24070001 	li	a3,1
8000072c:	10000002 	b	80000738 <lp_Print+0x130>
80000730:	00000000 	nop
80000734:	00003821 	move	a3,zero
80000738:	82030000 	lb	v1,0(s0)
8000073c:	24020030 	li	v0,48
80000740:	14620163 	bne	v1,v0,80000cd0 <lp_Print+0x6c8>
80000744:	00000000 	nop
80000748:	26040001 	addiu	a0,s0,1
8000074c:	82030001 	lb	v1,1(s0)
80000750:	00000000 	nop
80000754:	2462ffd0 	addiu	v0,v1,-48
80000758:	304200ff 	andi	v0,v0,0xff
8000075c:	2c42000a 	sltiu	v0,v0,10
80000760:	10400016 	beqz	v0,800007bc <lp_Print+0x1b4>
80000764:	00000000 	nop
80000768:	00808021 	move	s0,a0
8000076c:	24040030 	li	a0,48
80000770:	10000002 	b	8000077c <lp_Print+0x174>
80000774:	00000000 	nop
80000778:	24040020 	li	a0,32
8000077c:	00003021 	move	a2,zero
80000780:	00061040 	sll	v0,a2,0x1
80000784:	000630c0 	sll	a2,a2,0x3
80000788:	00463021 	addu	a2,v0,a2
8000078c:	26100001 	addiu	s0,s0,1
80000790:	2463ffd0 	addiu	v1,v1,-48
80000794:	00663021 	addu	a2,v1,a2
80000798:	82030000 	lb	v1,0(s0)
8000079c:	00000000 	nop
800007a0:	2462ffd0 	addiu	v0,v1,-48
800007a4:	304200ff 	andi	v0,v0,0xff
800007a8:	2c42000a 	sltiu	v0,v0,10
800007ac:	1440fff4 	bnez	v0,80000780 <lp_Print+0x178>
800007b0:	00000000 	nop
800007b4:	10000004 	b	800007c8 <lp_Print+0x1c0>
800007b8:	00000000 	nop
800007bc:	00808021 	move	s0,a0
800007c0:	24040030 	li	a0,48
800007c4:	00003021 	move	a2,zero
800007c8:	82030000 	lb	v1,0(s0)
800007cc:	2402002e 	li	v0,46
800007d0:	14620015 	bne	v1,v0,80000828 <lp_Print+0x220>
800007d4:	00000000 	nop
800007d8:	26030001 	addiu	v1,s0,1
800007dc:	92020001 	lbu	v0,1(s0)
800007e0:	00000000 	nop
800007e4:	2442ffd0 	addiu	v0,v0,-48
800007e8:	304200ff 	andi	v0,v0,0xff
800007ec:	2c42000a 	sltiu	v0,v0,10
800007f0:	1040000c 	beqz	v0,80000824 <lp_Print+0x21c>
800007f4:	00000000 	nop
800007f8:	24630001 	addiu	v1,v1,1
800007fc:	90620000 	lbu	v0,0(v1)
80000800:	00000000 	nop
80000804:	2442ffd0 	addiu	v0,v0,-48
80000808:	304200ff 	andi	v0,v0,0xff
8000080c:	2c42000a 	sltiu	v0,v0,10
80000810:	1440fff9 	bnez	v0,800007f8 <lp_Print+0x1f0>
80000814:	00000000 	nop
80000818:	00608021 	move	s0,v1
8000081c:	10000002 	b	80000828 <lp_Print+0x220>
80000820:	00000000 	nop
80000824:	00608021 	move	s0,v1
80000828:	92020000 	lbu	v0,0(s0)
8000082c:	00000000 	nop
80000830:	2c420079 	sltiu	v0,v0,121
80000834:	10400116 	beqz	v0,80000c90 <lp_Print+0x688>
80000838:	00000000 	nop
8000083c:	92020000 	lbu	v0,0(s0)
80000840:	00000000 	nop
80000844:	00021080 	sll	v0,v0,0x2
80000848:	02a21021 	addu	v0,s5,v0
8000084c:	8c420000 	lw	v0,0(v0)
80000850:	00000000 	nop
80000854:	00400008 	jr	v0
80000858:	00000000 	nop
8000085c:	10a00005 	beqz	a1,80000874 <lp_Print+0x26c>
80000860:	00000000 	nop
80000864:	8e450000 	lw	a1,0(s2)
80000868:	26520004 	addiu	s2,s2,4
8000086c:	10000003 	b	8000087c <lp_Print+0x274>
80000870:	00000000 	nop
80000874:	8e450000 	lw	a1,0(s2)
80000878:	26520004 	addiu	s2,s2,4
8000087c:	afa0001c 	sw	zero,28(sp)
80000880:	afa40018 	sw	a0,24(sp)
80000884:	afa70014 	sw	a3,20(sp)
80000888:	afa60010 	sw	a2,16(sp)
8000088c:	00003821 	move	a3,zero
80000890:	24060002 	li	a2,2
80000894:	27a40020 	addiu	a0,sp,32
80000898:	0c0000f8 	jal	800003e0 <PrintNum>
8000089c:	00000000 	nop
800008a0:	2c430051 	sltiu	v1,v0,81
800008a4:	14600009 	bnez	v1,800008cc <lp_Print+0x2c4>
800008a8:	00000000 	nop
800008ac:	24060018 	li	a2,24
800008b0:	3c058000 	lui	a1,0x8000
800008b4:	24a51018 	addiu	a1,a1,4120
800008b8:	02802021 	move	a0,s4
800008bc:	0260f809 	jalr	s3
800008c0:	00000000 	nop
800008c4:	1000ffff 	b	800008c4 <lp_Print+0x2bc>
800008c8:	00000000 	nop
800008cc:	00403021 	move	a2,v0
800008d0:	27a50020 	addiu	a1,sp,32
800008d4:	02802021 	move	a0,s4
800008d8:	0260f809 	jalr	s3
800008dc:	00000000 	nop
800008e0:	100000f0 	b	80000ca4 <lp_Print+0x69c>
800008e4:	00000000 	nop
800008e8:	10a00005 	beqz	a1,80000900 <lp_Print+0x2f8>
800008ec:	00000000 	nop
800008f0:	8e450000 	lw	a1,0(s2)
800008f4:	26520004 	addiu	s2,s2,4
800008f8:	10000003 	b	80000908 <lp_Print+0x300>
800008fc:	00000000 	nop
80000900:	8e450000 	lw	a1,0(s2)
80000904:	26520004 	addiu	s2,s2,4
80000908:	04a10005 	bgez	a1,80000920 <lp_Print+0x318>
8000090c:	00000000 	nop
80000910:	00052823 	negu	a1,a1
80000914:	24020001 	li	v0,1
80000918:	10000002 	b	80000924 <lp_Print+0x31c>
8000091c:	00000000 	nop
80000920:	00001021 	move	v0,zero
80000924:	afa0001c 	sw	zero,28(sp)
80000928:	afa40018 	sw	a0,24(sp)
8000092c:	afa70014 	sw	a3,20(sp)
80000930:	afa60010 	sw	a2,16(sp)
80000934:	00403821 	move	a3,v0
80000938:	2406000a 	li	a2,10
8000093c:	27a40020 	addiu	a0,sp,32
80000940:	0c0000f8 	jal	800003e0 <PrintNum>
80000944:	00000000 	nop
80000948:	2c430051 	sltiu	v1,v0,81
8000094c:	14600009 	bnez	v1,80000974 <lp_Print+0x36c>
80000950:	00000000 	nop
80000954:	24060018 	li	a2,24
80000958:	3c058000 	lui	a1,0x8000
8000095c:	24a51018 	addiu	a1,a1,4120
80000960:	02802021 	move	a0,s4
80000964:	0260f809 	jalr	s3
80000968:	00000000 	nop
8000096c:	1000ffff 	b	8000096c <lp_Print+0x364>
80000970:	00000000 	nop
80000974:	00403021 	move	a2,v0
80000978:	27a50020 	addiu	a1,sp,32
8000097c:	02802021 	move	a0,s4
80000980:	0260f809 	jalr	s3
80000984:	00000000 	nop
80000988:	100000c6 	b	80000ca4 <lp_Print+0x69c>
8000098c:	00000000 	nop
80000990:	10a00005 	beqz	a1,800009a8 <lp_Print+0x3a0>
80000994:	00000000 	nop
80000998:	8e450000 	lw	a1,0(s2)
8000099c:	26520004 	addiu	s2,s2,4
800009a0:	10000003 	b	800009b0 <lp_Print+0x3a8>
800009a4:	00000000 	nop
800009a8:	8e450000 	lw	a1,0(s2)
800009ac:	26520004 	addiu	s2,s2,4
800009b0:	afa0001c 	sw	zero,28(sp)
800009b4:	afa40018 	sw	a0,24(sp)
800009b8:	afa70014 	sw	a3,20(sp)
800009bc:	afa60010 	sw	a2,16(sp)
800009c0:	00003821 	move	a3,zero
800009c4:	24060008 	li	a2,8
800009c8:	27a40020 	addiu	a0,sp,32
800009cc:	0c0000f8 	jal	800003e0 <PrintNum>
800009d0:	00000000 	nop
800009d4:	2c430051 	sltiu	v1,v0,81
800009d8:	14600009 	bnez	v1,80000a00 <lp_Print+0x3f8>
800009dc:	00000000 	nop
800009e0:	24060018 	li	a2,24
800009e4:	3c058000 	lui	a1,0x8000
800009e8:	24a51018 	addiu	a1,a1,4120
800009ec:	02802021 	move	a0,s4
800009f0:	0260f809 	jalr	s3
800009f4:	00000000 	nop
800009f8:	1000ffff 	b	800009f8 <lp_Print+0x3f0>
800009fc:	00000000 	nop
80000a00:	00403021 	move	a2,v0
80000a04:	27a50020 	addiu	a1,sp,32
80000a08:	02802021 	move	a0,s4
80000a0c:	0260f809 	jalr	s3
80000a10:	00000000 	nop
80000a14:	100000a3 	b	80000ca4 <lp_Print+0x69c>
80000a18:	00000000 	nop
80000a1c:	10a00005 	beqz	a1,80000a34 <lp_Print+0x42c>
80000a20:	00000000 	nop
80000a24:	8e450000 	lw	a1,0(s2)
80000a28:	26520004 	addiu	s2,s2,4
80000a2c:	10000003 	b	80000a3c <lp_Print+0x434>
80000a30:	00000000 	nop
80000a34:	8e450000 	lw	a1,0(s2)
80000a38:	26520004 	addiu	s2,s2,4
80000a3c:	afa0001c 	sw	zero,28(sp)
80000a40:	afa40018 	sw	a0,24(sp)
80000a44:	afa70014 	sw	a3,20(sp)
80000a48:	afa60010 	sw	a2,16(sp)
80000a4c:	00003821 	move	a3,zero
80000a50:	2406000a 	li	a2,10
80000a54:	27a40020 	addiu	a0,sp,32
80000a58:	0c0000f8 	jal	800003e0 <PrintNum>
80000a5c:	00000000 	nop
80000a60:	2c430051 	sltiu	v1,v0,81
80000a64:	14600009 	bnez	v1,80000a8c <lp_Print+0x484>
80000a68:	00000000 	nop
80000a6c:	24060018 	li	a2,24
80000a70:	3c058000 	lui	a1,0x8000
80000a74:	24a51018 	addiu	a1,a1,4120
80000a78:	02802021 	move	a0,s4
80000a7c:	0260f809 	jalr	s3
80000a80:	00000000 	nop
80000a84:	1000ffff 	b	80000a84 <lp_Print+0x47c>
80000a88:	00000000 	nop
80000a8c:	00403021 	move	a2,v0
80000a90:	27a50020 	addiu	a1,sp,32
80000a94:	02802021 	move	a0,s4
80000a98:	0260f809 	jalr	s3
80000a9c:	00000000 	nop
80000aa0:	10000080 	b	80000ca4 <lp_Print+0x69c>
80000aa4:	00000000 	nop
80000aa8:	10a00005 	beqz	a1,80000ac0 <lp_Print+0x4b8>
80000aac:	00000000 	nop
80000ab0:	8e450000 	lw	a1,0(s2)
80000ab4:	26520004 	addiu	s2,s2,4
80000ab8:	10000003 	b	80000ac8 <lp_Print+0x4c0>
80000abc:	00000000 	nop
80000ac0:	8e450000 	lw	a1,0(s2)
80000ac4:	26520004 	addiu	s2,s2,4
80000ac8:	afa0001c 	sw	zero,28(sp)
80000acc:	afa40018 	sw	a0,24(sp)
80000ad0:	afa70014 	sw	a3,20(sp)
80000ad4:	afa60010 	sw	a2,16(sp)
80000ad8:	00003821 	move	a3,zero
80000adc:	24060010 	li	a2,16
80000ae0:	27a40020 	addiu	a0,sp,32
80000ae4:	0c0000f8 	jal	800003e0 <PrintNum>
80000ae8:	00000000 	nop
80000aec:	2c430051 	sltiu	v1,v0,81
80000af0:	14600009 	bnez	v1,80000b18 <lp_Print+0x510>
80000af4:	00000000 	nop
80000af8:	24060018 	li	a2,24
80000afc:	3c058000 	lui	a1,0x8000
80000b00:	24a51018 	addiu	a1,a1,4120
80000b04:	02802021 	move	a0,s4
80000b08:	0260f809 	jalr	s3
80000b0c:	00000000 	nop
80000b10:	1000ffff 	b	80000b10 <lp_Print+0x508>
80000b14:	00000000 	nop
80000b18:	00403021 	move	a2,v0
80000b1c:	27a50020 	addiu	a1,sp,32
80000b20:	02802021 	move	a0,s4
80000b24:	0260f809 	jalr	s3
80000b28:	00000000 	nop
80000b2c:	1000005d 	b	80000ca4 <lp_Print+0x69c>
80000b30:	00000000 	nop
80000b34:	10a00005 	beqz	a1,80000b4c <lp_Print+0x544>
80000b38:	00000000 	nop
80000b3c:	8e450000 	lw	a1,0(s2)
80000b40:	26520004 	addiu	s2,s2,4
80000b44:	10000003 	b	80000b54 <lp_Print+0x54c>
80000b48:	00000000 	nop
80000b4c:	8e450000 	lw	a1,0(s2)
80000b50:	26520004 	addiu	s2,s2,4
80000b54:	24020001 	li	v0,1
80000b58:	afa2001c 	sw	v0,28(sp)
80000b5c:	afa40018 	sw	a0,24(sp)
80000b60:	afa70014 	sw	a3,20(sp)
80000b64:	afa60010 	sw	a2,16(sp)
80000b68:	00003821 	move	a3,zero
80000b6c:	24060010 	li	a2,16
80000b70:	27a40020 	addiu	a0,sp,32
80000b74:	0c0000f8 	jal	800003e0 <PrintNum>
80000b78:	00000000 	nop
80000b7c:	2c430051 	sltiu	v1,v0,81
80000b80:	14600009 	bnez	v1,80000ba8 <lp_Print+0x5a0>
80000b84:	00000000 	nop
80000b88:	24060018 	li	a2,24
80000b8c:	3c058000 	lui	a1,0x8000
80000b90:	24a51018 	addiu	a1,a1,4120
80000b94:	02802021 	move	a0,s4
80000b98:	0260f809 	jalr	s3
80000b9c:	00000000 	nop
80000ba0:	1000ffff 	b	80000ba0 <lp_Print+0x598>
80000ba4:	00000000 	nop
80000ba8:	00403021 	move	a2,v0
80000bac:	27a50020 	addiu	a1,sp,32
80000bb0:	02802021 	move	a0,s4
80000bb4:	0260f809 	jalr	s3
80000bb8:	00000000 	nop
80000bbc:	10000039 	b	80000ca4 <lp_Print+0x69c>
80000bc0:	00000000 	nop
80000bc4:	26570004 	addiu	s7,s2,4
80000bc8:	82450000 	lb	a1,0(s2)
80000bcc:	27a40020 	addiu	a0,sp,32
80000bd0:	0c000070 	jal	800001c0 <PrintChar>
80000bd4:	00000000 	nop
80000bd8:	2c430051 	sltiu	v1,v0,81
80000bdc:	14600009 	bnez	v1,80000c04 <lp_Print+0x5fc>
80000be0:	00000000 	nop
80000be4:	24060018 	li	a2,24
80000be8:	3c058000 	lui	a1,0x8000
80000bec:	24a51018 	addiu	a1,a1,4120
80000bf0:	02802021 	move	a0,s4
80000bf4:	0260f809 	jalr	s3
80000bf8:	00000000 	nop
80000bfc:	1000ffff 	b	80000bfc <lp_Print+0x5f4>
80000c00:	00000000 	nop
80000c04:	00403021 	move	a2,v0
80000c08:	27a50020 	addiu	a1,sp,32
80000c0c:	02802021 	move	a0,s4
80000c10:	0260f809 	jalr	s3
80000c14:	00000000 	nop
80000c18:	02e09021 	move	s2,s7
80000c1c:	10000021 	b	80000ca4 <lp_Print+0x69c>
80000c20:	00000000 	nop
80000c24:	26570004 	addiu	s7,s2,4
80000c28:	8e450000 	lw	a1,0(s2)
80000c2c:	27a40020 	addiu	a0,sp,32
80000c30:	0c0000a0 	jal	80000280 <PrintString>
80000c34:	00000000 	nop
80000c38:	2c430051 	sltiu	v1,v0,81
80000c3c:	14600009 	bnez	v1,80000c64 <lp_Print+0x65c>
80000c40:	00000000 	nop
80000c44:	24060018 	li	a2,24
80000c48:	3c058000 	lui	a1,0x8000
80000c4c:	24a51018 	addiu	a1,a1,4120
80000c50:	02802021 	move	a0,s4
80000c54:	0260f809 	jalr	s3
80000c58:	00000000 	nop
80000c5c:	1000ffff 	b	80000c5c <lp_Print+0x654>
80000c60:	00000000 	nop
80000c64:	00403021 	move	a2,v0
80000c68:	27a50020 	addiu	a1,sp,32
80000c6c:	02802021 	move	a0,s4
80000c70:	0260f809 	jalr	s3
80000c74:	00000000 	nop
80000c78:	02e09021 	move	s2,s7
80000c7c:	10000009 	b	80000ca4 <lp_Print+0x69c>
80000c80:	00000000 	nop
80000c84:	2610ffff 	addiu	s0,s0,-1
80000c88:	10000006 	b	80000ca4 <lp_Print+0x69c>
80000c8c:	00000000 	nop
80000c90:	24060001 	li	a2,1
80000c94:	02002821 	move	a1,s0
80000c98:	02802021 	move	a0,s4
80000c9c:	0260f809 	jalr	s3
80000ca0:	00000000 	nop
80000ca4:	26050001 	addiu	a1,s0,1
80000ca8:	1000fe69 	b	80000650 <lp_Print+0x48>
80000cac:	00000000 	nop
80000cb0:	24060001 	li	a2,1
80000cb4:	3c058000 	lui	a1,0x8000
80000cb8:	24a50e30 	addiu	a1,a1,3632
80000cbc:	02802021 	move	a0,s4
80000cc0:	0260f809 	jalr	s3
80000cc4:	00000000 	nop
80000cc8:	1000000a 	b	80000cf4 <lp_Print+0x6ec>
80000ccc:	00000000 	nop
80000cd0:	2462ffd0 	addiu	v0,v1,-48
80000cd4:	304200ff 	andi	v0,v0,0xff
80000cd8:	2c42000a 	sltiu	v0,v0,10
80000cdc:	1440fea6 	bnez	v0,80000778 <lp_Print+0x170>
80000ce0:	00000000 	nop
80000ce4:	24040020 	li	a0,32
80000ce8:	00003021 	move	a2,zero
80000cec:	1000feb6 	b	800007c8 <lp_Print+0x1c0>
80000cf0:	00000000 	nop
80000cf4:	8fbf0094 	lw	ra,148(sp)
80000cf8:	8fb70090 	lw	s7,144(sp)
80000cfc:	8fb6008c 	lw	s6,140(sp)
80000d00:	8fb50088 	lw	s5,136(sp)
80000d04:	8fb40084 	lw	s4,132(sp)
80000d08:	8fb30080 	lw	s3,128(sp)
80000d0c:	8fb2007c 	lw	s2,124(sp)
80000d10:	8fb10078 	lw	s1,120(sp)
80000d14:	8fb00074 	lw	s0,116(sp)
80000d18:	27bd0098 	addiu	sp,sp,152
80000d1c:	03e00008 	jr	ra
80000d20:	00000000 	nop
	...

80000d30 <myoutput>:
80000d30:	27bdffd8 	addiu	sp,sp,-40
80000d34:	afbf0024 	sw	ra,36(sp)
80000d38:	afb30020 	sw	s3,32(sp)
80000d3c:	afb2001c 	sw	s2,28(sp)
80000d40:	afb10018 	sw	s1,24(sp)
80000d44:	afb00014 	sw	s0,20(sp)
80000d48:	24020001 	li	v0,1
80000d4c:	10c20009 	beq	a2,v0,80000d74 <myoutput+0x44>
80000d50:	00000000 	nop
80000d54:	18c0001c 	blez	a2,80000dc8 <myoutput+0x98>
80000d58:	00000000 	nop
80000d5c:	00c09021 	move	s2,a2
80000d60:	00a08021 	move	s0,a1
80000d64:	00008821 	move	s1,zero
80000d68:	2413000a 	li	s3,10
80000d6c:	10000007 	b	80000d8c <myoutput+0x5c>
80000d70:	00000000 	nop
80000d74:	80a20000 	lb	v0,0(a1)
80000d78:	00000000 	nop
80000d7c:	1440fff7 	bnez	v0,80000d5c <myoutput+0x2c>
80000d80:	00000000 	nop
80000d84:	10000010 	b	80000dc8 <myoutput+0x98>
80000d88:	00000000 	nop
80000d8c:	92040000 	lbu	a0,0(s0)
80000d90:	0c000062 	jal	80000188 <Uart16550Put>
80000d94:	00000000 	nop
80000d98:	82020000 	lb	v0,0(s0)
80000d9c:	00000000 	nop
80000da0:	14530004 	bne	v0,s3,80000db4 <myoutput+0x84>
80000da4:	00000000 	nop
80000da8:	2404000d 	li	a0,13
80000dac:	0c000062 	jal	80000188 <Uart16550Put>
80000db0:	00000000 	nop
80000db4:	26310001 	addiu	s1,s1,1
80000db8:	26100001 	addiu	s0,s0,1
80000dbc:	0232102a 	slt	v0,s1,s2
80000dc0:	1440fff2 	bnez	v0,80000d8c <myoutput+0x5c>
80000dc4:	00000000 	nop
80000dc8:	8fbf0024 	lw	ra,36(sp)
80000dcc:	8fb30020 	lw	s3,32(sp)
80000dd0:	8fb2001c 	lw	s2,28(sp)
80000dd4:	8fb10018 	lw	s1,24(sp)
80000dd8:	8fb00014 	lw	s0,20(sp)
80000ddc:	27bd0028 	addiu	sp,sp,40
80000de0:	03e00008 	jr	ra
80000de4:	00000000 	nop

80000de8 <printf>:
80000de8:	27bdffe0 	addiu	sp,sp,-32
80000dec:	afbf001c 	sw	ra,28(sp)
80000df0:	afa50024 	sw	a1,36(sp)
80000df4:	afa60028 	sw	a2,40(sp)
80000df8:	afa7002c 	sw	a3,44(sp)
80000dfc:	27a70024 	addiu	a3,sp,36
80000e00:	afa70010 	sw	a3,16(sp)
80000e04:	00803021 	move	a2,a0
80000e08:	00002821 	move	a1,zero
80000e0c:	3c048000 	lui	a0,0x8000
80000e10:	24840d30 	addiu	a0,a0,3376
80000e14:	0c000182 	jal	80000608 <lp_Print>
80000e18:	00000000 	nop
80000e1c:	8fbf001c 	lw	ra,28(sp)
80000e20:	27bd0020 	addiu	sp,sp,32
80000e24:	03e00008 	jr	ra
80000e28:	00000000 	nop
	...
80000e34:	80000c84 	lb	zero,3204(zero)
80000e38:	80000c90 	lb	zero,3216(zero)
80000e3c:	80000c90 	lb	zero,3216(zero)
80000e40:	80000c90 	lb	zero,3216(zero)
80000e44:	80000c90 	lb	zero,3216(zero)
80000e48:	80000c90 	lb	zero,3216(zero)
80000e4c:	80000c90 	lb	zero,3216(zero)
80000e50:	80000c90 	lb	zero,3216(zero)
80000e54:	80000c90 	lb	zero,3216(zero)
80000e58:	80000c90 	lb	zero,3216(zero)
80000e5c:	80000c90 	lb	zero,3216(zero)
80000e60:	80000c90 	lb	zero,3216(zero)
80000e64:	80000c90 	lb	zero,3216(zero)
80000e68:	80000c90 	lb	zero,3216(zero)
80000e6c:	80000c90 	lb	zero,3216(zero)
80000e70:	80000c90 	lb	zero,3216(zero)
80000e74:	80000c90 	lb	zero,3216(zero)
80000e78:	80000c90 	lb	zero,3216(zero)
80000e7c:	80000c90 	lb	zero,3216(zero)
80000e80:	80000c90 	lb	zero,3216(zero)
80000e84:	80000c90 	lb	zero,3216(zero)
80000e88:	80000c90 	lb	zero,3216(zero)
80000e8c:	80000c90 	lb	zero,3216(zero)
80000e90:	80000c90 	lb	zero,3216(zero)
80000e94:	80000c90 	lb	zero,3216(zero)
80000e98:	80000c90 	lb	zero,3216(zero)
80000e9c:	80000c90 	lb	zero,3216(zero)
80000ea0:	80000c90 	lb	zero,3216(zero)
80000ea4:	80000c90 	lb	zero,3216(zero)
80000ea8:	80000c90 	lb	zero,3216(zero)
80000eac:	80000c90 	lb	zero,3216(zero)
80000eb0:	80000c90 	lb	zero,3216(zero)
80000eb4:	80000c90 	lb	zero,3216(zero)
80000eb8:	80000c90 	lb	zero,3216(zero)
80000ebc:	80000c90 	lb	zero,3216(zero)
80000ec0:	80000c90 	lb	zero,3216(zero)
80000ec4:	80000c90 	lb	zero,3216(zero)
80000ec8:	80000c90 	lb	zero,3216(zero)
80000ecc:	80000c90 	lb	zero,3216(zero)
80000ed0:	80000c90 	lb	zero,3216(zero)
80000ed4:	80000c90 	lb	zero,3216(zero)
80000ed8:	80000c90 	lb	zero,3216(zero)
80000edc:	80000c90 	lb	zero,3216(zero)
80000ee0:	80000c90 	lb	zero,3216(zero)
80000ee4:	80000c90 	lb	zero,3216(zero)
80000ee8:	80000c90 	lb	zero,3216(zero)
80000eec:	80000c90 	lb	zero,3216(zero)
80000ef0:	80000c90 	lb	zero,3216(zero)
80000ef4:	80000c90 	lb	zero,3216(zero)
80000ef8:	80000c90 	lb	zero,3216(zero)
80000efc:	80000c90 	lb	zero,3216(zero)
80000f00:	80000c90 	lb	zero,3216(zero)
80000f04:	80000c90 	lb	zero,3216(zero)
80000f08:	80000c90 	lb	zero,3216(zero)
80000f0c:	80000c90 	lb	zero,3216(zero)
80000f10:	80000c90 	lb	zero,3216(zero)
80000f14:	80000c90 	lb	zero,3216(zero)
80000f18:	80000c90 	lb	zero,3216(zero)
80000f1c:	80000c90 	lb	zero,3216(zero)
80000f20:	80000c90 	lb	zero,3216(zero)
80000f24:	80000c90 	lb	zero,3216(zero)
80000f28:	80000c90 	lb	zero,3216(zero)
80000f2c:	80000c90 	lb	zero,3216(zero)
80000f30:	80000c90 	lb	zero,3216(zero)
80000f34:	80000c90 	lb	zero,3216(zero)
80000f38:	80000c90 	lb	zero,3216(zero)
80000f3c:	80000c90 	lb	zero,3216(zero)
80000f40:	80000c90 	lb	zero,3216(zero)
80000f44:	800008e8 	lb	zero,2280(zero)
80000f48:	80000c90 	lb	zero,3216(zero)
80000f4c:	80000c90 	lb	zero,3216(zero)
80000f50:	80000c90 	lb	zero,3216(zero)
80000f54:	80000c90 	lb	zero,3216(zero)
80000f58:	80000c90 	lb	zero,3216(zero)
80000f5c:	80000c90 	lb	zero,3216(zero)
80000f60:	80000c90 	lb	zero,3216(zero)
80000f64:	80000c90 	lb	zero,3216(zero)
80000f68:	80000c90 	lb	zero,3216(zero)
80000f6c:	80000c90 	lb	zero,3216(zero)
80000f70:	80000990 	lb	zero,2448(zero)
80000f74:	80000c90 	lb	zero,3216(zero)
80000f78:	80000c90 	lb	zero,3216(zero)
80000f7c:	80000c90 	lb	zero,3216(zero)
80000f80:	80000c90 	lb	zero,3216(zero)
80000f84:	80000c90 	lb	zero,3216(zero)
80000f88:	80000a1c 	lb	zero,2588(zero)
80000f8c:	80000c90 	lb	zero,3216(zero)
80000f90:	80000c90 	lb	zero,3216(zero)
80000f94:	80000b34 	lb	zero,2868(zero)
80000f98:	80000c90 	lb	zero,3216(zero)
80000f9c:	80000c90 	lb	zero,3216(zero)
80000fa0:	80000c90 	lb	zero,3216(zero)
80000fa4:	80000c90 	lb	zero,3216(zero)
80000fa8:	80000c90 	lb	zero,3216(zero)
80000fac:	80000c90 	lb	zero,3216(zero)
80000fb0:	80000c90 	lb	zero,3216(zero)
80000fb4:	80000c90 	lb	zero,3216(zero)
80000fb8:	80000c90 	lb	zero,3216(zero)
80000fbc:	8000085c 	lb	zero,2140(zero)
80000fc0:	80000bc4 	lb	zero,3012(zero)
80000fc4:	800008e8 	lb	zero,2280(zero)
80000fc8:	80000c90 	lb	zero,3216(zero)
80000fcc:	80000c90 	lb	zero,3216(zero)
80000fd0:	80000c90 	lb	zero,3216(zero)
80000fd4:	80000c90 	lb	zero,3216(zero)
80000fd8:	80000c90 	lb	zero,3216(zero)
80000fdc:	80000c90 	lb	zero,3216(zero)
80000fe0:	80000c90 	lb	zero,3216(zero)
80000fe4:	80000c90 	lb	zero,3216(zero)
80000fe8:	80000c90 	lb	zero,3216(zero)
80000fec:	80000c90 	lb	zero,3216(zero)
80000ff0:	80000990 	lb	zero,2448(zero)
80000ff4:	80000c90 	lb	zero,3216(zero)
80000ff8:	80000c90 	lb	zero,3216(zero)
80000ffc:	80000c90 	lb	zero,3216(zero)
80001000:	80000c24 	lb	zero,3108(zero)
80001004:	80000c90 	lb	zero,3216(zero)
80001008:	80000a1c 	lb	zero,2588(zero)
8000100c:	80000c90 	lb	zero,3216(zero)
80001010:	80000c90 	lb	zero,3216(zero)
80001014:	80000aa8 	lb	zero,2728(zero)

80001018 <theFatalMsg>:
80001018:	61746166 	0x61746166
8000101c:	7265206c 	0x7265206c
80001020:	20726f72 	addi	s2,v1,28530
80001024:	6c206e69 	0x6c206e69
80001028:	72505f70 	0x72505f70
8000102c:	21746e69 	addi	s4,t3,28265
	...
80001040:	69616d28 	0x69616d28
80001044:	4820296e 	0x4820296e
80001048:	6f6c6c65 	0x6f6c6c65
8000104c:	6f77202c 	0x6f77202c
80001050:	21646c72 	addi	a0,t3,27762
80001054:	0000000a 	0xa
80001058:	706f6f6c 	0x706f6f6c
8000105c:	726f6620 	0x726f6620
80001060:	72657665 	0x72657665
80001064:	2e2e2e20 	sltiu	t6,s1,11808
80001068:	0000000a 	0xa
8000106c:	6967614d 	0x6967614d
80001070:	64253a63 	0x64253a63
80001074:	0000000a 	0xa
80001078:	6c6c6568 	0x6c6c6568
8000107c:	6874206f 	0x6874206f
80001080:	67756f72 	0x67756f72
80001084:	72702068 	0x72702068
80001088:	66746e69 	0x66746e69
8000108c:	00000a21 	0xa21
80001090:	74736574 	jalx	81cd95d0 <theFatalMsg+0x1cd85b8>
80001094:	72747320 	0x72747320
80001098:	00676e69 	0x676e69
8000109c:	74736574 	jalx	81cd95d0 <theFatalMsg+0x1cd85b8>
800010a0:	72747320 	0x72747320
800010a4:	3a676e69 	xori	a3,s3,0x6e69
800010a8:	0a732520 	j	89cc9480 <theFatalMsg+0x9cc8468>
800010ac:	00000000 	nop
800010b0:	74736574 	jalx	81cd95d0 <theFatalMsg+0x1cd85b8>
800010b4:	746e6920 	jalx	81b9a480 <theFatalMsg+0x1b99468>
800010b8:	6425203a 	0x6425203a
800010bc:	0000000a 	0xa
800010c0:	74736574 	jalx	81cd95d0 <theFatalMsg+0x1cd85b8>
800010c4:	6e696220 	0x6e696220
800010c8:	3a797261 	xori	t9,s3,0x7261
800010cc:	0a622520 	j	89889480 <theFatalMsg+0x9888468>
800010d0:	00000000 	nop
800010d4:	74736574 	jalx	81cd95d0 <theFatalMsg+0x1cd85b8>
800010d8:	78656820 	0x78656820
800010dc:	3025203a 	andi	a1,at,0x203a
800010e0:	000a7838 	0xa7838

Disassembly of section .reginfo:

800010e4 <.reginfo>:
800010e4:	a0000102 	sb	zero,258(zero)
	...

Disassembly of section .MIPS.abiflags:

80001100 <.MIPS.abiflags>:
80001100:	00010000 	sll	zero,at,0x0
80001104:	01000101 	0x1000101
	...

Disassembly of section .pdr:

00000000 <.pdr>:
   0:	80000000 	lb	zero,0(zero)
	...
  18:	0000001d 	0x1d
  1c:	0000001f 	0x1f
  20:	80000040 	lb	zero,64(zero)
  24:	80000000 	lb	zero,0(zero)
  28:	fffffffc 	0xfffffffc
	...
  34:	00000018 	mult	zero,zero
  38:	0000001d 	0x1d
  3c:	0000001f 	0x1f
  40:	80000100 	lb	zero,256(zero)
	...
  58:	0000001d 	0x1d
  5c:	0000001f 	0x1f
  60:	80000158 	lb	zero,344(zero)
	...
  78:	0000001d 	0x1d
  7c:	0000001f 	0x1f
  80:	80000188 	lb	zero,392(zero)
	...
  98:	0000001d 	0x1d
  9c:	0000001f 	0x1f
  a0:	800001c0 	lb	zero,448(zero)
	...
  b8:	0000001d 	0x1d
  bc:	0000001f 	0x1f
  c0:	80000280 	lb	zero,640(zero)
	...
  d8:	0000001d 	0x1d
  dc:	0000001f 	0x1f
  e0:	800003e0 	lb	zero,992(zero)
	...
  f8:	0000001d 	0x1d
  fc:	0000001f 	0x1f
 100:	80000608 	lb	zero,1544(zero)
 104:	80ff0000 	lb	ra,0(a3)
 108:	fffffffc 	0xfffffffc
	...
 114:	00000098 	0x98
 118:	0000001d 	0x1d
 11c:	0000001f 	0x1f
 120:	80000d30 	lb	zero,3376(zero)
 124:	800f0000 	lb	t7,0(zero)
 128:	fffffffc 	0xfffffffc
	...
 134:	00000028 	0x28
 138:	0000001d 	0x1d
 13c:	0000001f 	0x1f
 140:	80000de8 	lb	zero,3560(zero)
 144:	80000000 	lb	zero,0(zero)
 148:	fffffffc 	0xfffffffc
	...
 154:	00000020 	add	zero,zero,zero
 158:	0000001d 	0x1d
 15c:	0000001f 	0x1f

Disassembly of section .gnu.attributes:

00000000 <.gnu.attributes>:
   0:	00000f41 	0xf41
   4:	756e6700 	jalx	5b99c00 <_start-0x7a466400>
   8:	00070100 	sll	zero,a3,0x4
   c:	01040000 	0x1040000

Disassembly of section .comment:

00000000 <.comment>:
   0:	3a434347 	xori	v1,s2,0x4347
   4:	4e472820 	c3	0x472820
   8:	35202955 	ori	zero,t1,0x2955
   c:	302e322e 	andi	t6,at,0x322e
	...
